target datalayout = "e-m:e-p270:32:32-p271:32:32-p272:64:64-i64:64-i128:128-f80:128-n8:16:32:64-S128"
target triple = "x86_64-unknown-linux-gnu"

%"class.icu_75::TransliterationRuleSet" = type { ptr, ptr, ptr, [257 x i32], i32 }
%struct.UTransPosition = type { i32, i32, i32, i32 }

; Function Attrs: mustprogress uwtable
define linkonce_odr noundef i32 @_ZNK6icu_7511Replaceable8char32AtEi(ptr noundef nonnull align 8 dereferenceable(8) %this, i32 noundef %offset) #0 comdat align 2 {
entry:
  %this.addr = alloca ptr, align 8
  %offset.addr = alloca i32, align 4
  store ptr %this, ptr %this.addr, align 8
  store i32 %offset, ptr %offset.addr, align 4
  %this1 = load ptr, ptr %this.addr, align 8
  %0 = load i32, ptr %offset.addr, align 4
  %vtable = load ptr, ptr %this1, align 8
  %vfn = getelementptr inbounds ptr, ptr %vtable, i64 10
  %1 = load ptr, ptr %vfn, align 8
  %call = call noundef i32 %1(ptr noundef nonnull align 8 dereferenceable(8) %this1, i32 noundef %0)
  ret i32 %call
}

; Function Attrs: mustprogress uwtable
define noundef signext i8 @_ZN6icu_7522TransliterationRuleSet13transliterateERNS_11ReplaceableER14UTransPositiona(ptr noundef nonnull align 8 dereferenceable(1056) %this, ptr noundef nonnull align 8 dereferenceable(8) %text, ptr noundef nonnull align 4 dereferenceable(16) %pos, i8 noundef signext %incremental) #0 align 2 {
entry:
  %retval = alloca i8, align 1
  %this.addr = alloca ptr, align 8
  %text.addr = alloca ptr, align 8
  %pos.addr = alloca ptr, align 8
  %incremental.addr = alloca i8, align 1
  %indexByte = alloca i16, align 2
  %i = alloca i32, align 4
  %m = alloca i32, align 4
  store ptr %this, ptr %this.addr, align 8
  store ptr %text, ptr %text.addr, align 8
  store ptr %pos, ptr %pos.addr, align 8
  store i8 %incremental, ptr %incremental.addr, align 1
  %this1 = load ptr, ptr %this.addr, align 8
  %0 = load ptr, ptr %text.addr, align 8
  %1 = load ptr, ptr %pos.addr, align 8
  %start = getelementptr inbounds %struct.UTransPosition, ptr %1, i32 0, i32 2
  %2 = load i32, ptr %start, align 4
  %call = call noundef i32 @_ZNK6icu_7511Replaceable8char32AtEi(ptr noundef nonnull align 8 dereferenceable(8) %0, i32 noundef %2)
  %and = and i32 %call, 255
  %conv = trunc i32 %and to i16
  store i16 %conv, ptr %indexByte, align 2
  %index = getelementptr inbounds %"class.icu_75::TransliterationRuleSet", ptr %this1, i32 0, i32 3
  %3 = load i16, ptr %indexByte, align 2
  %idxprom = sext i16 %3 to i64
  %arrayidx = getelementptr inbounds [257 x i32], ptr %index, i64 0, i64 %idxprom
  %4 = load i32, ptr %arrayidx, align 4
  store i32 %4, ptr %i, align 4
  br label %for.cond

for.cond:                                         ; preds = %for.inc, %entry
  %5 = load i32, ptr %i, align 4
  %index2 = getelementptr inbounds %"class.icu_75::TransliterationRuleSet", ptr %this1, i32 0, i32 3
  %6 = load i16, ptr %indexByte, align 2
  %conv3 = sext i16 %6 to i32
  %add = add nsw i32 %conv3, 1
  %idxprom4 = sext i32 %add to i64
  %arrayidx5 = getelementptr inbounds [257 x i32], ptr %index2, i64 0, i64 %idxprom4
  %7 = load i32, ptr %arrayidx5, align 4
  %cmp = icmp slt i32 %5, %7
  br i1 %cmp, label %for.body, label %for.end

for.body:                                         ; preds = %for.cond
  %rules = getelementptr inbounds %"class.icu_75::TransliterationRuleSet", ptr %this1, i32 0, i32 2
  %8 = load ptr, ptr %rules, align 8
  %9 = load i32, ptr %i, align 4
  %idxprom6 = sext i32 %9 to i64
  %arrayidx7 = getelementptr inbounds ptr, ptr %8, i64 %idxprom6
  %10 = load ptr, ptr %arrayidx7, align 8
  %11 = load ptr, ptr %text.addr, align 8
  %12 = load ptr, ptr %pos.addr, align 8
  %13 = load i8, ptr %incremental.addr, align 1
  %call8 = call noundef i32 @_ZNK6icu_7519TransliterationRule15matchAndReplaceERNS_11ReplaceableER14UTransPositiona(ptr noundef nonnull align 8 dereferenceable(136) %10, ptr noundef nonnull align 8 dereferenceable(8) %11, ptr noundef nonnull align 4 dereferenceable(16) %12, i8 noundef signext %13)
  store i32 %call8, ptr %m, align 4
  %14 = load i32, ptr %m, align 4
  switch i32 %14, label %sw.default [
    i32 2, label %sw.bb
    i32 1, label %sw.bb9
  ]

sw.bb:                                            ; preds = %for.body
  store i8 1, ptr %retval, align 1
  br label %return

sw.bb9:                                           ; preds = %for.body
  store i8 0, ptr %retval, align 1
  br label %return

sw.default:                                       ; preds = %for.body
  br label %sw.epilog

sw.epilog:                                        ; preds = %sw.default
  br label %for.inc

for.inc:                                          ; preds = %sw.epilog
  %15 = load i32, ptr %i, align 4
  %inc = add nsw i32 %15, 1
  store i32 %inc, ptr %i, align 4
  br label %for.cond, !llvm.loop !14

for.end:                                          ; preds = %for.cond
  %16 = load ptr, ptr %text.addr, align 8
  %17 = load ptr, ptr %pos.addr, align 8
  %start10 = getelementptr inbounds %struct.UTransPosition, ptr %17, i32 0, i32 2
  %18 = load i32, ptr %start10, align 4
  %call11 = call noundef i32 @_ZNK6icu_7511Replaceable8char32AtEi(ptr noundef nonnull align 8 dereferenceable(8) %16, i32 noundef %18)
  %cmp12 = icmp ule i32 %call11, 65535
  %cond = select i1 %cmp12, i32 1, i32 2
  %19 = load ptr, ptr %pos.addr, align 8
  %start13 = getelementptr inbounds %struct.UTransPosition, ptr %19, i32 0, i32 2
  %20 = load i32, ptr %start13, align 4
  %add14 = add nsw i32 %20, %cond
  store i32 %add14, ptr %start13, align 4
  store i8 1, ptr %retval, align 1
  br label %return

return:                                           ; preds = %for.end, %sw.bb9, %sw.bb
  %21 = load i8, ptr %retval, align 1
  ret i8 %21
}