; Function Attrs: mustprogress uwtable
define noundef signext i8 @_ZN6icu_7522TransliterationRuleSet13transliterateERNS_11ReplaceableER14UTransPositiona(ptr nocapture noundef nonnull readonly align 8 dereferenceable(1056) %this, ptr noundef nonnull align 8 dereferenceable(8) %text, ptr noundef nonnull align 4 dereferenceable(16) %pos, i8 noundef signext %incremental) local_unnamed_addr #0 align 2 {
entry:
  %start = getelementptr inbounds i8, ptr %pos, i64 8
  %0 = load i32, ptr %start, align 4
  %vtable.i = load ptr, ptr %text, align 8
  %vfn.i = getelementptr inbounds i8, ptr %vtable.i, i64 80
  %1 = load ptr, ptr %vfn.i, align 8
  %call.i = tail call noundef i32 %1(ptr noundef nonnull align 8 dereferenceable(8) %text, i32 noundef %0)
  %2 = and i32 %call.i, 255
  %conv = zext nneg i32 %2 to i64
  %index = getelementptr inbounds i8, ptr %this, i64 24
  %arrayidx = getelementptr inbounds [257 x i32], ptr %index, i64 0, i64 %conv
  %3 = load i32, ptr %arrayidx, align 4
  %add = add nuw nsw i32 %2, 1
  %idxprom4 = zext nneg i32 %add to i64
  %arrayidx5 = getelementptr inbounds [257 x i32], ptr %index, i64 0, i64 %idxprom4
  %4 = load i32, ptr %arrayidx5, align 4
  %cmp13 = icmp slt i32 %3, %4
  br i1 %cmp13, label %for.body.lr.ph, label %for.end

for.body.lr.ph:                                   ; preds = %entry
  %rules = getelementptr inbounds i8, ptr %this, i64 16
  %5 = sext i32 %3 to i64
  br label %for.body

for.body:                                         ; preds = %for.body.lr.ph, %for.inc
  %indvars.iv = phi i64 [ %5, %for.body.lr.ph ], [ %indvars.iv.next, %for.inc ]
  %6 = load ptr, ptr %rules, align 8
  %arrayidx7 = getelementptr inbounds ptr, ptr %6, i64 %indvars.iv
  %7 = load ptr, ptr %arrayidx7, align 8
  %call8 = tail call noundef i32 @_ZNK6icu_7519TransliterationRule15matchAndReplaceERNS_11ReplaceableER14UTransPositiona(ptr noundef nonnull align 8 dereferenceable(136) %7, ptr noundef nonnull align 8 dereferenceable(8) %text, ptr noundef nonnull align 4 dereferenceable(16) %pos, i8 noundef signext %incremental)
  switch i32 %call8, label %for.inc [
    i32 2, label %return.loopexit
    i32 1, label %return
  ]

for.inc:                                          ; preds = %for.body
  %indvars.iv.next = add nsw i64 %indvars.iv, 1
  %8 = load i32, ptr %arrayidx5, align 4
  %9 = sext i32 %8 to i64
  %cmp = icmp slt i64 %indvars.iv.next, %9
  br i1 %cmp, label %for.body, label %for.end, !llvm.loop !15

for.end:                                          ; preds = %for.inc, %entry
  %10 = load i32, ptr %start, align 4
  %vtable.i9 = load ptr, ptr %text, align 8
  %vfn.i10 = getelementptr inbounds i8, ptr %vtable.i9, i64 80
  %11 = load ptr, ptr %vfn.i10, align 8
  %call.i11 = tail call noundef i32 %11(ptr noundef nonnull align 8 dereferenceable(8) %text, i32 noundef %10)
  %cmp12 = icmp ult i32 %call.i11, 65536
  %cond = select i1 %cmp12, i32 1, i32 2
  %12 = load i32, ptr %start, align 4
  %add14 = add nsw i32 %cond, %12
  store i32 %add14, ptr %start, align 4
  br label %return

return.loopexit:                                  ; preds = %for.body
  br label %return

return:                                           ; preds = %for.body, %return.loopexit, %for.end
  %retval.0 = phi i8 [ 1, %for.end ], [ 1, %return.loopexit ], [ 0, %for.body ]
  ret i8 %retval.0
}